; Function Attrs: mustprogress nofree norecurse nosync nounwind willreturn memory(read, inaccessiblemem: none) uwtable
define dso_local noundef ptr @_ZNK4Luau13DataFlowGraph16getRefinementKeyEPKNS_7AstExprE(ptr noundef nonnull readonly align 8 captures(none) dereferenceable(216) %0, ptr noundef %1) local_unnamed_addr #6 align 2 {
  %3 = getelementptr inbounds nuw i8, ptr %0, i64 176
  %4 = getelementptr inbounds nuw i8, ptr %0, i64 192
  %5 = load i64, ptr %4, align 8, !tbaa !74
  %6 = icmp eq i64 %5, 0
  br i1 %6, label %_ZNK4Luau12DenseHashMapIPKNS_7AstExprEPKNS_13RefinementKeyENS_16DenseHashPointerESt8equal_toIS3_EE4findERKS3_.exit.thread, label %7

7:                                                ; preds = %2
  %8 = getelementptr inbounds nuw i8, ptr %0, i64 200
  %9 = load ptr, ptr %8, align 8, !tbaa !53
  %10 = icmp eq ptr %1, %9
  br i1 %10, label %_ZNK4Luau12DenseHashMapIPKNS_7AstExprEPKNS_13RefinementKeyENS_16DenseHashPointerESt8equal_toIS3_EE4findERKS3_.exit.thread, label %11

11:                                               ; preds = %7
  %12 = getelementptr inbounds nuw i8, ptr %0, i64 184
  %13 = load i64, ptr %12, align 8, !tbaa !77
  %14 = add i64 %13, -1
  %15 = ptrtoint ptr %1 to i64
  %16 = lshr i64 %15, 4
  %17 = lshr i64 %15, 9
  %18 = xor i64 %16, %17
  %19 = load ptr, ptr %3, align 8, !tbaa !78
  br label %20

20:                                               ; preds = %26, %11
  %.pn.i.i = phi i64 [ %18, %11 ], [ %28, %26 ]
  %.02028.i.i = phi i64 [ 0, %11 ], [ %27, %26 ]
  %.02129.i.i = and i64 %.pn.i.i, %14
  %21 = getelementptr inbounds nuw %"struct.std::pair.132", ptr %19, i64 %.02129.i.i
  %22 = load ptr, ptr %21, align 8, !tbaa !53
  %23 = icmp eq ptr %22, %1
  br i1 %23, label %_ZNK4Luau12DenseHashMapIPKNS_7AstExprEPKNS_13RefinementKeyENS_16DenseHashPointerESt8equal_toIS3_EE4findERKS3_.exit, label %24

24:                                               ; preds = %20
  %25 = icmp eq ptr %22, %9
  br i1 %25, label %_ZNK4Luau12DenseHashMapIPKNS_7AstExprEPKNS_13RefinementKeyENS_16DenseHashPointerESt8equal_toIS3_EE4findERKS3_.exit.thread, label %26

26:                                               ; preds = %24
  %27 = add i64 %.02028.i.i, 1
  %28 = add i64 %27, %.02129.i.i
  %.not.i.i = icmp ugt i64 %27, %14
  br i1 %.not.i.i, label %_ZNK4Luau12DenseHashMapIPKNS_7AstExprEPKNS_13RefinementKeyENS_16DenseHashPointerESt8equal_toIS3_EE4findERKS3_.exit.thread, label %20, !llvm.loop !79

_ZNK4Luau12DenseHashMapIPKNS_7AstExprEPKNS_13RefinementKeyENS_16DenseHashPointerESt8equal_toIS3_EE4findERKS3_.exit: ; preds = %20
  %29 = getelementptr inbounds nuw i8, ptr %21, i64 8
  %30 = load ptr, ptr %29, align 8, !tbaa !32
  br label %_ZNK4Luau12DenseHashMapIPKNS_7AstExprEPKNS_13RefinementKeyENS_16DenseHashPointerESt8equal_toIS3_EE4findERKS3_.exit.thread

_ZNK4Luau12DenseHashMapIPKNS_7AstExprEPKNS_13RefinementKeyENS_16DenseHashPointerESt8equal_toIS3_EE4findERKS3_.exit.thread: ; preds = %24, %26, %7, %2, %_ZNK4Luau12DenseHashMapIPKNS_7AstExprEPKNS_13RefinementKeyENS_16DenseHashPointerESt8equal_toIS3_EE4findERKS3_.exit
  %spec.select = phi ptr [ %30, %_ZNK4Luau12DenseHashMapIPKNS_7AstExprEPKNS_13RefinementKeyENS_16DenseHashPointerESt8equal_toIS3_EE4findERKS3_.exit ], [ null, %2 ], [ null, %7 ], [ null, %26 ], [ null, %24 ]
  ret ptr %spec.select
}